target datalayout = "e-m:e-p270:32:32-p271:32:32-p272:64:64-i64:64-i128:128-f80:128-n8:16:32:64-S128"
target triple = "x86_64-pc-linux-gnu"

%struct.job_record = type { i32, ptr, ptr, ptr, ptr, i16, i32, i32, i32, ptr, i32, ptr, ptr, i16, ptr, double, i64, ptr, ptr, ptr, ptr, ptr, ptr, i32, ptr, i32, i64, i64, i32, i32, ptr, i16, i64, i64, i8, i32, ptr, ptr, ptr, ptr, ptr, ptr, ptr, ptr, i32, ptr, ptr, i32, ptr, i32, ptr, i32, ptr, i32, ptr, ptr, ptr, ptr, ptr, ptr, i32, i16, i64, ptr, ptr, ptr, ptr, %struct.acct_policy_limit_set_t, i16, ptr, ptr, ptr, ptr, ptr, i32, ptr, ptr, ptr, ptr, ptr, i32, i32, ptr, ptr, ptr, i16, ptr, ptr, i8, ptr, ptr, i64, i64, i8, i32, i32, i8, i32, ptr, i32, i64, i32, ptr, ptr, ptr, i8, i16, i64, i32, ptr, ptr, ptr, ptr, ptr, i16, i32, ptr, ptr, ptr, ptr, i32, ptr, i32, i16, i64, ptr, i32, i32, ptr, i64, ptr, ptr, i64, i32, i32, i64, i32, i32, ptr, ptr, ptr, ptr, ptr, ptr, ptr, ptr, ptr, ptr, ptr, ptr, i32, ptr, i16, i16, i16, i16, ptr, i32, i32, i8, i64 }
%struct.acct_policy_limit_set_t = type { i16, i16, ptr }
%struct.slurmdb_qos_rec_t = type { i64, ptr, i32, i32, i32, i32, i32, i32, ptr, ptr, ptr, ptr, ptr, ptr, i32, double, i32, i32, i32, i32, i32, i32, ptr, ptr, ptr, ptr, ptr, ptr, ptr, ptr, ptr, ptr, ptr, ptr, ptr, ptr, i32, i32, ptr, ptr, ptr, ptr, ptr, i16, i32, i32, ptr, ptr, double, double }
%struct.job_node_select_t = type { ptr, ptr, i32, i32, i32, i32, i32, i8 }

@.str.313 = private unnamed_addr constant [23 x i8] c"Try %pJ on next QOS %s\00", align 1

; Function Attrs: nounwind uwtable
define internal i32 @_select_nodes_resvs(ptr noundef %0) #0 {
  %2 = alloca i32, align 4
  %3 = alloca ptr, align 8
  %4 = alloca ptr, align 8
  %5 = alloca i32, align 4
  store ptr %0, ptr %3, align 8
  call void @llvm.lifetime.start.p0(i64 8, ptr %4) #13
  %6 = load ptr, ptr %3, align 8
  %7 = getelementptr inbounds nuw %struct.job_node_select_t, ptr %6, i32 0, i32 1
  %8 = load ptr, ptr %7, align 8
  store ptr %8, ptr %4, align 8
  %9 = load ptr, ptr %4, align 8
  %10 = getelementptr inbounds nuw %struct.job_record, ptr %9, i32 0, i32 109
  %11 = load ptr, ptr %10, align 8
  %12 = icmp ne ptr %11, null
  br i1 %12, label %16, label %13

13:                                               ; preds = %1
  %14 = load ptr, ptr %3, align 8
  %15 = call i32 @_select_nodes_base(ptr noundef %14)
  store i32 %15, ptr %2, align 4
  store i32 1, ptr %5, align 4
  br label %27

16:                                               ; preds = %1
  %17 = load ptr, ptr %3, align 8
  %18 = getelementptr inbounds nuw %struct.job_node_select_t, ptr %17, i32 0, i32 6
  store i32 -1, ptr %18, align 8
  %19 = load ptr, ptr %4, align 8
  %20 = getelementptr inbounds nuw %struct.job_record, ptr %19, i32 0, i32 109
  %21 = load ptr, ptr %20, align 8
  %22 = load ptr, ptr %3, align 8
  %23 = call i32 @list_for_each(ptr noundef %21, ptr noundef @_foreach_select_nodes_resvs, ptr noundef %22)
  %24 = load ptr, ptr %3, align 8
  %25 = getelementptr inbounds nuw %struct.job_node_select_t, ptr %24, i32 0, i32 6
  %26 = load i32, ptr %25, align 8
  store i32 %26, ptr %2, align 4
  store i32 1, ptr %5, align 4
  br label %27

27:                                               ; preds = %16, %13
  call void @llvm.lifetime.end.p0(i64 8, ptr %4) #13
  %28 = load i32, ptr %2, align 4
  ret i32 %28
}

; Function Attrs: nounwind uwtable
define internal i32 @_foreach_select_nodes_qos(ptr noundef %0, ptr noundef %1) #0 {
  %3 = alloca i32, align 4
  %4 = alloca ptr, align 8
  %5 = alloca ptr, align 8
  %6 = alloca ptr, align 8
  %7 = alloca ptr, align 8
  %8 = alloca ptr, align 8
  %9 = alloca i32, align 4
  store ptr %0, ptr %4, align 8
  store ptr %1, ptr %5, align 8
  call void @llvm.lifetime.start.p0(i64 8, ptr %6) #13
  %10 = load ptr, ptr %4, align 8
  store ptr %10, ptr %6, align 8
  call void @llvm.lifetime.start.p0(i64 8, ptr %7) #13
  %11 = load ptr, ptr %5, align 8
  store ptr %11, ptr %7, align 8
  call void @llvm.lifetime.start.p0(i64 8, ptr %8) #13
  %12 = load ptr, ptr %7, align 8
  %13 = getelementptr inbounds nuw %struct.job_node_select_t, ptr %12, i32 0, i32 1
  %14 = load ptr, ptr %13, align 8
  store ptr %14, ptr %8, align 8
  %15 = load ptr, ptr %6, align 8
  %16 = load ptr, ptr %8, align 8
  %17 = getelementptr inbounds nuw %struct.job_record, ptr %16, i32 0, i32 103
  store ptr %15, ptr %17, align 8
  br label %18

18:                                               ; preds = %2
  br label %19

19:                                               ; preds = %18
  %20 = call i32 @get_log_level()
  %21 = icmp sge i32 %20, 6
  br i1 %21, label %22, label %27

22:                                               ; preds = %19
  %23 = load ptr, ptr %8, align 8
  %24 = load ptr, ptr %6, align 8
  %25 = getelementptr inbounds nuw %struct.slurmdb_qos_rec_t, ptr %24, i32 0, i32 40
  %26 = load ptr, ptr %25, align 8
  call void (i32, ptr, ...) @log_var(i32 noundef 6, ptr noundef @.str.313, ptr noundef %23, ptr noundef %26)
  br label %27

27:                                               ; preds = %22, %19
  br label %28

28:                                               ; preds = %27
  br label %29

29:                                               ; preds = %28
  br label %30

30:                                               ; preds = %29
  br label %31

31:                                               ; preds = %30
  %32 = load ptr, ptr %7, align 8
  %33 = call i32 @_select_nodes_resvs(ptr noundef %32)
  %34 = load ptr, ptr %7, align 8
  %35 = getelementptr inbounds nuw %struct.job_node_select_t, ptr %34, i32 0, i32 5
  store i32 %33, ptr %35, align 4
  %36 = icmp eq i32 %33, 0
  br i1 %36, label %37, label %38

37:                                               ; preds = %31
  store i32 -1, ptr %3, align 4
  store i32 1, ptr %9, align 4
  br label %39

38:                                               ; preds = %31
  store i32 0, ptr %3, align 4
  store i32 1, ptr %9, align 4
  br label %39

39:                                               ; preds = %38, %37
  call void @llvm.lifetime.end.p0(i64 8, ptr %8) #13
  call void @llvm.lifetime.end.p0(i64 8, ptr %7) #13
  call void @llvm.lifetime.end.p0(i64 8, ptr %6) #13
  %40 = load i32, ptr %3, align 4
  ret i32 %40
}