; Function Attrs: nounwind uwtable
define internal range(i32 -1, 1) i32 @_foreach_select_nodes_qos(ptr noundef %0, ptr noundef %1) #0 {
  %3 = getelementptr inbounds nuw i8, ptr %1, i64 8
  %4 = load ptr, ptr %3, align 8
  %5 = getelementptr inbounds nuw i8, ptr %4, i64 768
  store ptr %0, ptr %5, align 8
  %6 = tail call i32 @get_log_level() #27
  %7 = icmp sgt i32 %6, 5
  br i1 %7, label %8, label %11

8:                                                ; preds = %2
  %9 = getelementptr inbounds nuw i8, ptr %0, i64 264
  %10 = load ptr, ptr %9, align 8
  tail call void (i32, ptr, ...) @log_var(i32 noundef 6, ptr noundef nonnull @.str.313, ptr noundef nonnull %4, ptr noundef %10) #27
  br label %11

11:                                               ; preds = %8, %2
  %12 = load ptr, ptr %3, align 8
  %13 = getelementptr inbounds nuw i8, ptr %12, i64 808
  %14 = load ptr, ptr %13, align 8
  %.not.i = icmp eq ptr %14, null
  br i1 %.not.i, label %15, label %17

15:                                               ; preds = %11
  %16 = tail call fastcc i32 @_select_nodes_base(ptr noundef nonnull %1)
  br label %_select_nodes_resvs.exit

17:                                               ; preds = %11
  %18 = getelementptr inbounds nuw i8, ptr %1, i64 32
  store i32 -1, ptr %18, align 8
  %19 = load ptr, ptr %13, align 8
  %20 = tail call i32 @list_for_each(ptr noundef %19, ptr noundef nonnull @_foreach_select_nodes_resvs, ptr noundef nonnull %1) #27
  %21 = load i32, ptr %18, align 8
  br label %_select_nodes_resvs.exit

_select_nodes_resvs.exit:                         ; preds = %15, %17
  %.0.i = phi i32 [ %21, %17 ], [ %16, %15 ]
  %22 = getelementptr inbounds nuw i8, ptr %1, i64 28
  store i32 %.0.i, ptr %22, align 4
  %23 = icmp eq i32 %.0.i, 0
  %. = sext i1 %23 to i32
  ret i32 %.
}